GAS LISTING /tmp/ccnyzdAF.s 			page 1


   1              		.file	"main.c"
   2              		.option nopic
   3              		.option norelax
   4              		.text
   5              	.Ltext0:
   6              		.cfi_sections	.debug_frame
   7              		.align	2
   8              		.globl	main
  10              	main:
  11              	.LFB0:
  12              		.file 1 "src/main.c"
   1:src/main.c    **** #include "../lib/console.h"
   2:src/main.c    **** #include "../lib/mem.h"
   3:src/main.c    **** #include "../lib/hw.h"
   4:src/main.c    **** 
   5:src/main.c    **** void main(){
  13              		.loc 1 5 12
  14              		.cfi_startproc
  15 0000 130101FF 		addi	sp,sp,-16
  16              		.cfi_def_cfa_offset 16
  17 0004 23341100 		sd	ra,8(sp)
  18 0008 23308100 		sd	s0,0(sp)
  19              		.cfi_offset 1, -8
  20              		.cfi_offset 8, -16
  21 000c 13040101 		addi	s0,sp,16
  22              		.cfi_def_cfa 8, 0
   6:src/main.c    ****     __mem_alloc(4);
  23              		.loc 1 6 5
  24 0010 13054000 		li	a0,4
  25 0014 97000000 		call	__mem_alloc
  25      E7800000 
  26              	.LVL0:
   7:src/main.c    ****     if(HEAP_START_ADDR > HEAP_END_ADDR) __putc('k');
  27              		.loc 1 7 5
  28              		.loc 1 7 24 is_stmt 0
  29 001c 17070000 		ld	a4,HEAP_START_ADDR
  29      03370700 
  30 0024 97070000 		ld	a5,HEAP_END_ADDR
  30      83B70700 
  31              		.loc 1 7 7
  32 002c 63EAE700 		bgtu	a4,a5,.L4
  33              	.L1:
   8:src/main.c    **** }...
  34              		.loc 1 8 1
  35 0030 83308100 		ld	ra,8(sp)
  36              		.cfi_remember_state
  37              		.cfi_restore 1
  38 0034 03340100 		ld	s0,0(sp)
  39              		.cfi_restore 8
  40              		.cfi_def_cfa 2, 16
  41 0038 13010101 		addi	sp,sp,16
  42              		.cfi_def_cfa_offset 0
  43 003c 67800000 		jr	ra
  44              	.L4:
  45              		.cfi_restore_state
   7:src/main.c    ****     if(HEAP_START_ADDR > HEAP_END_ADDR) __putc('k');
  46              		.loc 1 7 41 is_stmt 1 discriminator 1
GAS LISTING /tmp/ccnyzdAF.s 			page 2


  47 0040 1305B006 		li	a0,107
  48 0044 97000000 		call	__putc
  48      E7800000 
  49              	.LVL1:
  50              		.loc 1 8 1 is_stmt 0 discriminator 1
  51 004c 6FF05FFE 		j	.L1
  52              		.cfi_endproc
  53              	.LFE0:
  55              	.Letext0:
  56              		.file 2 "src/../lib/hw.h"
  57              		.file 3 "src/../lib/mem.h"
  58              		.file 4 "src/../lib/console.h"
GAS LISTING /tmp/ccnyzdAF.s 			page 3

