GAS LISTING /tmp/ccs00qLz.s 			page 1


   1              		.file	"mem.c"
   2              		.option nopic
   3              		.option norelax
   4              		.text
   5              	.Ltext0:
   6              		.cfi_sections	.debug_frame
   7              		.align	2
   8              		.globl	__mem_alloc
  10              	__mem_alloc:
  11              	.LFB0:
  12              		.file 1 "lib/mem.c"
   1:lib/mem.c     **** #include "mem.h"
   2:lib/mem.c     **** #include "hw.h"
   3:lib/mem.c     **** 
   4:lib/mem.c     **** static _frmem first = {0, 0};
   5:lib/mem.c     **** 
   6:lib/mem.c     **** void* __mem_alloc(size_t size){
  13              		.loc 1 6 31
  14              		.cfi_startproc
  15              	.LVL0:
  16 0000 130101FF 		addi	sp,sp,-16
  17              		.cfi_def_cfa_offset 16
  18 0004 23348100 		sd	s0,8(sp)
  19              		.cfi_offset 8, -8
  20 0008 13040101 		addi	s0,sp,16
  21              		.cfi_def_cfa 8, 0
   7:lib/mem.c     ****     if(first.next == 0) first.current_size = HEAP_END_ADDR - HEAP_START_ADDR;
  22              		.loc 1 7 5
  23              		.loc 1 7 13 is_stmt 0
  24 000c 97070000 		ld	a5,.LANCHOR0
  24      83B70700 
  25              		.loc 1 7 7
  26 0014 638A0700 		beqz	a5,.L4
  27              	.L2:
   8:lib/mem.c     ****     //Calculate size to alloc
   9:lib/mem.c     ****     size_t size_to_alloc;
  28              		.loc 1 9 5 is_stmt 1
  10:lib/mem.c     ****     if (size % MEM_BLOCK_SIZE == 0) size_to_alloc = size;
  29              		.loc 1 10 5
  11:lib/mem.c     ****     else size_to_alloc = (size / MEM_BLOCK_SIZE + 1)* MEM_BLOCK_SIZE;
  12:lib/mem.c     **** 
  13:lib/mem.c     ****     size_to_alloc = size_to_alloc;
  30              		.loc 1 13 5
  14:lib/mem.c     **** 
  15:lib/mem.c     ****     //if (first.)
  16:lib/mem.c     **** 
  17:lib/mem.c     ****     return 0;
  31              		.loc 1 17 5
  18:lib/mem.c     **** }
  32              		.loc 1 18 1 is_stmt 0
  33 0018 13050000 		li	a0,0
  34              	.LVL1:
  35 001c 03348100 		ld	s0,8(sp)
  36              		.cfi_remember_state
  37              		.cfi_restore 8
  38              		.cfi_def_cfa 2, 16
  39 0020 13010101 		addi	sp,sp,16
GAS LISTING /tmp/ccs00qLz.s 			page 2


  40              		.cfi_def_cfa_offset 0
  41 0024 67800000 		jr	ra
  42              	.LVL2:
  43              	.L4:
  44              		.cfi_restore_state
   7:lib/mem.c     ****     //Calculate size to alloc
  45              		.loc 1 7 25 is_stmt 1 discriminator 1
   7:lib/mem.c     ****     //Calculate size to alloc
  46              		.loc 1 7 60 is_stmt 0 discriminator 1
  47 0028 97070000 		ld	a5,HEAP_END_ADDR
  47      83B70700 
  48 0030 17070000 		ld	a4,HEAP_START_ADDR
  48      03370700 
  49 0038 B387E740 		sub	a5,a5,a4
   7:lib/mem.c     ****     //Calculate size to alloc
  50              		.loc 1 7 44 discriminator 1
  51 003c 17070000 		sd	a5,.LANCHOR0+8,a4
  51      2330F700 
  52 0044 6FF05FFD 		j	.L2
  53              		.cfi_endproc
  54              	.LFE0:
  56              		.align	2
  57              		.globl	__mem_free
  59              	__mem_free:
  60              	.LFB1:
  19:lib/mem.c     **** 
  20:lib/mem.c     **** int __mem_free(void* ptr){
  61              		.loc 1 20 26 is_stmt 1
  62              		.cfi_startproc
  63              	.LVL3:
  64 0048 130101FF 		addi	sp,sp,-16
  65              		.cfi_def_cfa_offset 16
  66 004c 23348100 		sd	s0,8(sp)
  67              		.cfi_offset 8, -8
  68 0050 13040101 		addi	s0,sp,16
  69              		.cfi_def_cfa 8, 0
  21:lib/mem.c     ****     return 0;
  70              		.loc 1 21 5
  22:lib/mem.c     **** }
  71              		.loc 1 22 1 is_stmt 0
  72 0054 13050000 		li	a0,0
  73              	.LVL4:
  74 0058 03348100 		ld	s0,8(sp)
  75              		.cfi_restore 8
  76              		.cfi_def_cfa 2, 16
  77 005c 13010101 		addi	sp,sp,16
  78              		.cfi_def_cfa_offset 0
  79 0060 67800000 		jr	ra
  80              		.cfi_endproc
  81              	.LFE1:
  83              		.bss
  84              		.align	3
  85              		.set	.LANCHOR0,. + 0
  88              	first:
  89 0000 00000000 		.zero	16
  89      00000000 
  89      00000000 
GAS LISTING /tmp/ccs00qLz.s 			page 3


  89      00000000 
  90              		.text
  91              	.Letext0:
  92              		.file 2 "lib/hw.h"
  93              		.file 3 "lib/mem.h"
GAS LISTING /tmp/ccs00qLz.s 			page 4

